target datalayout = "e-m:e-p270:32:32-p271:32:32-p272:64:64-i64:64-i128:128-f80:128-n8:16:32:64-S128"
target triple = "x86_64-pc-linux-gnu"

%struct.timeval = type { i64, i64 }
%struct._logentry = type { i32, i8, i16, i64, %struct.timeval, i32, [0 x %union.anon] }
%union.anon = type { i8 }

@.str.21 = private unnamed_addr constant [24 x i8] c"ts=%lld.%d gid=%llu %s\0A\00", align 1

; Function Attrs: nounwind uwtable
define internal i32 @_logger_parse_text(ptr noundef %0, ptr noundef %1) #0 {
  %3 = alloca ptr, align 8
  %4 = alloca ptr, align 8
  store ptr %0, ptr %3, align 8, !tbaa !33
  store ptr %1, ptr %4, align 8, !tbaa !63
  %5 = load ptr, ptr %4, align 8, !tbaa !63
  %6 = load ptr, ptr %3, align 8, !tbaa !33
  %7 = getelementptr inbounds nuw %struct._logentry, ptr %6, i32 0, i32 4
  %8 = getelementptr inbounds nuw %struct.timeval, ptr %7, i32 0, i32 0
  %9 = load i64, ptr %8, align 8, !tbaa !108
  %10 = load ptr, ptr %3, align 8, !tbaa !33
  %11 = getelementptr inbounds nuw %struct._logentry, ptr %10, i32 0, i32 4
  %12 = getelementptr inbounds nuw %struct.timeval, ptr %11, i32 0, i32 1
  %13 = load i64, ptr %12, align 8, !tbaa !109
  %14 = trunc i64 %13 to i32
  %15 = load ptr, ptr %3, align 8, !tbaa !33
  %16 = getelementptr inbounds nuw %struct._logentry, ptr %15, i32 0, i32 3
  %17 = load i64, ptr %16, align 8, !tbaa !4
  %18 = load ptr, ptr %3, align 8, !tbaa !33
  %19 = getelementptr inbounds nuw %struct._logentry, ptr %18, i32 0, i32 6
  %20 = getelementptr inbounds [0 x %union.anon], ptr %19, i64 0, i64 0
  %21 = call i32 (ptr, i64, ptr, ...) @snprintf(ptr noundef %5, i64 noundef 4096, ptr noundef @.str.21, i64 noundef %9, i32 noundef %14, i64 noundef %17, ptr noundef %20) #11
  ret i32 %21
}