; Function Attrs: nofree nounwind uwtable
define internal noundef i32 @_logger_parse_text(ptr noundef %0, ptr noundef writeonly captures(none) %1) #12 {
  %3 = getelementptr inbounds nuw i8, ptr %0, i64 16
  %4 = load i64, ptr %3, align 8, !tbaa !91
  %5 = getelementptr inbounds nuw i8, ptr %0, i64 24
  %6 = load i64, ptr %5, align 8, !tbaa !92
  %7 = trunc i64 %6 to i32
  %8 = getelementptr inbounds nuw i8, ptr %0, i64 8
  %9 = load i64, ptr %8, align 8, !tbaa !13
  %10 = getelementptr inbounds nuw i8, ptr %0, i64 36
  %11 = tail call i32 (ptr, i64, ptr, ...) @snprintf(ptr noundef nonnull dereferenceable(1) %1, i64 noundef 4096, ptr noundef nonnull @.str.21, i64 noundef %4, i32 noundef %7, i64 noundef %9, ptr noundef nonnull %10) #18
  ret i32 %11
}